(lp1
(lp2
I11
aI0
aI3
aI0
aa(lp3
I-1
aI-1
aI-1
aI-1
aa(lp4
I71
aI0
aI22
aI0
aa(lp5
I62
aI0
aI32
aI0
aa(lp6
I112
aI0
aI44
aI0
aa(lp7
I165
aI0
aI61
aI0
aa(lp8
I194
aI0
aI82
aI0
aa(lp9
I125
aI0
aI65
aI0
aa(lp10
I76
aI0
aI32
aI0
aa(lp11
I37
aI0
aI9
aI0
aa(lp12
I86
aI0
aI30
aI0
aa(lp13
I11
aI0
aI3
aI0
aa(lp14
I117
aI0
aI49
aI0
aa(lp15
I45
aI0
aI14
aI0
aa(lp16
I62
aI0
aI17
aI0
aa(lp17
I60
aI0
aI24
aI0
aa(lp18
I129
aI0
aI47
aI0
aa(lp19
I29
aI0
aI7
aI0
aa(lp20
I37
aI0
aI19
aI0
aa(lp21
I19
aI0
aI4
aI0
aa(lp22
I84
aI0
aI30
aI0
aa(lp23
I52
aI0
aI22
aI0
aa(lp24
I67
aI0
aI25
aI0
aa(lp25
I56
aI0
aI14
aI0
aa(lp26
I66
aI0
aI26
aI0
aa(lp27
I68
aI0
aI15
aI0
aa(lp28
I90
aI0
aI32
aI0
aa(lp29
I35
aI0
aI15
aI0
aa(lp30
I89
aI0
aI30
aI0
aa(lp31
I49
aI0
aI17
aI0
aa(lp32
I61
aI0
aI17
aI0
aa(lp33
I94
aI0
aI45
aI0
aa(lp34
I66
aI0
aI23
aI0
aa(lp35
I61
aI0
aI18
aI0
aa(lp36
I87
aI0
aI27
aI0
aa(lp37
I43
aI0
aI15
aI0
aa(lp38
I48
aI0
aI20
aI0
aa(lp39
I23
aI0
aI4
aI0
aa(lp40
I81
aI0
aI26
aI0
aa(lp41
I57
aI0
aI20
aI0
aa(lp42
I52
aI0
aI16
aI0
aa(lp43
I141
aI0
aI50
aI0
aa(lp44
I31
aI0
aI7
aI0
aa(lp45
I54
aI0
aI14
aI0
aa(lp46
I99
aI0
aI33
aI0
aa(lp47
I49
aI0
aI17
aI0
aa(lp48
I50
aI0
aI22
aI0
aa(lp49
I19
aI0
aI11
aI0
aa(lp50
I70
aI0
aI26
aI0
aa(lp51
I20
aI0
aI12
aI0
aa(lp52
I50
aI0
aI22
aI0
aa(lp53
I65
aI0
aI25
aI0
aa(lp54
I54
aI0
aI22
aI0
aa(lp55
I0
aI0
aI0
aI0
aa(lp56
I17
aI0
aI8
aI0
aa(lp57
I105
aI0
aI58
aI0
aa(lp58
I50
aI0
aI17
aI0
aa(lp59
I47
aI0
aI15
aI0
aa(lp60
I57
aI0
aI20
aI0
aa(lp61
I71
aI0
aI32
aI0
aa(lp62
I74
aI0
aI29
aI0
aa(lp63
I33
aI0
aI13
aI0
aa(lp64
I54
aI0
aI24
aI0
aa(lp65
I47
aI0
aI22
aI0
aa(lp66
I28
aI0
aI13
aI0
aa(lp67
I26
aI0
aI11
aI0
aa(lp68
I74
aI0
aI41
aI0
aa(lp69
I45
aI0
aI20
aI0
aa(lp70
I42
aI0
aI22
aI0
aa(lp71
I49
aI0
aI18
aI0
aa(lp72
I40
aI0
aI19
aI0
aa(lp73
I82
aI0
aI26
aI0
aa(lp74
I34
aI0
aI19
aI0
aa(lp75
I46
aI0
aI18
aI0
aa(lp76
I63
aI0
aI32
aI0
aa(lp77
I48
aI0
aI26
aI0
aa(lp78
I0
aI0
aI0
aI0
aa(lp79
I24
aI0
aI12
aI0
aa(lp80
I54
aI0
aI23
aI0
aa(lp81
I37
aI0
aI19
aI0
aa(lp82
I59
aI0
aI25
aI0
aa(lp83
I39
aI0
aI8
aI0
aa(lp84
I25
aI0
aI9
aI0
aa(lp85
I55
aI0
aI17
aI0
aa(lp86
I6
aI0
aI2
aI0
aa(lp87
I34
aI0
aI15
aI0
aa(lp88
I61
aI0
aI23
aI0
aa(lp89
I57
aI0
aI25
aI0
aa(lp90
I51
aI0
aI25
aI0
aa.